target datalayout = "e-m:e-p270:32:32-p271:32:32-p272:64:64-i64:64-i128:128-f80:128-n8:16:32:64-S128"
target triple = "x86_64-pc-linux-gnu"

%"struct.std::_Vector_base" = type { %"struct.std::_Vector_base<cv::Point_<float>, std::allocator<cv::Point_<float>>>::_Vector_impl" }
%"struct.std::_Vector_base<cv::Point_<float>, std::allocator<cv::Point_<float>>>::_Vector_impl" = type { %"struct.std::_Vector_base<cv::Point_<float>, std::allocator<cv::Point_<float>>>::_Vector_impl_data" }
%"struct.std::_Vector_base<cv::Point_<float>, std::allocator<cv::Point_<float>>>::_Vector_impl_data" = type { ptr, ptr, ptr }
%"class.cv::Size_" = type { i32, i32 }
%"class.cv::Point_" = type { float, float }
%"class.cv::KeyPoint" = type { %"class.cv::Point_", float, float, float, i32, i32 }
%"struct.std::_Vector_base.20" = type { %"struct.std::_Vector_base<cv::KeyPoint, std::allocator<cv::KeyPoint>>::_Vector_impl" }
%"struct.std::_Vector_base<cv::KeyPoint, std::allocator<cv::KeyPoint>>::_Vector_impl" = type { %"struct.std::_Vector_base<cv::KeyPoint, std::allocator<cv::KeyPoint>>::_Vector_impl_data" }
%"struct.std::_Vector_base<cv::KeyPoint, std::allocator<cv::KeyPoint>>::_Vector_impl_data" = type { ptr, ptr, ptr }

; Function Attrs: mustprogress nounwind uwtable
define linkonce_odr hidden noundef nonnull align 4 dereferenceable(8) ptr @_ZNSt6vectorIN2cv6Point_IfEESaIS2_EEixEm(ptr noundef nonnull align 8 dereferenceable(24) %0, i64 noundef %1) #4 comdat align 2 {
  %3 = alloca ptr, align 8
  %4 = alloca i64, align 8
  store ptr %0, ptr %3, align 8, !tbaa !51
  store i64 %1, ptr %4, align 8, !tbaa !12
  %5 = load ptr, ptr %3, align 8
  %6 = getelementptr inbounds nuw %"struct.std::_Vector_base", ptr %5, i32 0, i32 0
  %7 = getelementptr inbounds nuw %"struct.std::_Vector_base<cv::Point_<float>, std::allocator<cv::Point_<float>>>::_Vector_impl_data", ptr %6, i32 0, i32 0
  %8 = load ptr, ptr %7, align 8, !tbaa !53
  %9 = load i64, ptr %4, align 8, !tbaa !12
  %10 = getelementptr inbounds nuw %"class.cv::Point_", ptr %8, i64 %9
  ret ptr %10
}

; Function Attrs: mustprogress nounwind uwtable
define linkonce_odr hidden noundef nonnull align 4 dereferenceable(28) ptr @_ZNKSt6vectorIN2cv8KeyPointESaIS1_EEixEm(ptr noundef nonnull align 8 dereferenceable(24) %0, i64 noundef %1) #4 comdat align 2 {
  %3 = alloca ptr, align 8
  %4 = alloca i64, align 8
  store ptr %0, ptr %3, align 8, !tbaa !106
  store i64 %1, ptr %4, align 8, !tbaa !12
  %5 = load ptr, ptr %3, align 8
  %6 = getelementptr inbounds nuw %"struct.std::_Vector_base.20", ptr %5, i32 0, i32 0
  %7 = getelementptr inbounds nuw %"struct.std::_Vector_base<cv::KeyPoint, std::allocator<cv::KeyPoint>>::_Vector_impl_data", ptr %6, i32 0, i32 0
  %8 = load ptr, ptr %7, align 8, !tbaa !115
  %9 = load i64, ptr %4, align 8, !tbaa !12
  %10 = getelementptr inbounds nuw %"class.cv::KeyPoint", ptr %8, i64 %9
  ret ptr %10
}

; Function Attrs: mustprogress nounwind uwtable
define linkonce_odr hidden noundef i64 @_ZNKSt6vectorIN2cv8KeyPointESaIS1_EE4sizeEv(ptr noundef nonnull align 8 dereferenceable(24) %0) #4 comdat align 2 {
  %2 = alloca ptr, align 8
  store ptr %0, ptr %2, align 8, !tbaa !106
  %3 = load ptr, ptr %2, align 8
  %4 = getelementptr inbounds nuw %"struct.std::_Vector_base.20", ptr %3, i32 0, i32 0
  %5 = getelementptr inbounds nuw %"struct.std::_Vector_base<cv::KeyPoint, std::allocator<cv::KeyPoint>>::_Vector_impl_data", ptr %4, i32 0, i32 1
  %6 = load ptr, ptr %5, align 8, !tbaa !112
  %7 = getelementptr inbounds nuw %"struct.std::_Vector_base.20", ptr %3, i32 0, i32 0
  %8 = getelementptr inbounds nuw %"struct.std::_Vector_base<cv::KeyPoint, std::allocator<cv::KeyPoint>>::_Vector_impl_data", ptr %7, i32 0, i32 0
  %9 = load ptr, ptr %8, align 8, !tbaa !115
  %10 = ptrtoint ptr %6 to i64
  %11 = ptrtoint ptr %9 to i64
  %12 = sub i64 %10, %11
  %13 = sdiv exact i64 %12, 28
  ret i64 %13
}

; Function Attrs: mustprogress uwtable
define hidden void @_ZN2cv11xfeatures2d10GMSMatcher15normalizePointsERKSt6vectorINS_8KeyPointESaIS3_EERKNS_5Size_IiEERS2_INS_6Point_IfEESaISD_EE(ptr noundef nonnull align 8 dereferenceable(512) %0, ptr noundef nonnull align 8 dereferenceable(24) %1, ptr noundef nonnull align 4 dereferenceable(8) %2, ptr noundef nonnull align 8 dereferenceable(24) %3) #3 align 2 {
  %5 = alloca ptr, align 8
  %6 = alloca ptr, align 8
  %7 = alloca ptr, align 8
  %8 = alloca ptr, align 8
  %9 = alloca i64, align 8
  %10 = alloca i32, align 4
  %11 = alloca i32, align 4
  %12 = alloca i64, align 8
  store ptr %0, ptr %5, align 8, !tbaa !9
  store ptr %1, ptr %6, align 8, !tbaa !106
  store ptr %2, ptr %7, align 8, !tbaa !95
  store ptr %3, ptr %8, align 8, !tbaa !51
  call void @llvm.lifetime.start.p0(i64 8, ptr %9) #18
  %13 = load ptr, ptr %6, align 8, !tbaa !106
  %14 = call noundef i64 @_ZNKSt6vectorIN2cv8KeyPointESaIS1_EE4sizeEv(ptr noundef nonnull align 8 dereferenceable(24) %13) #18
  store i64 %14, ptr %9, align 8, !tbaa !12
  call void @llvm.lifetime.start.p0(i64 4, ptr %10) #18
  %15 = load ptr, ptr %7, align 8, !tbaa !95
  %16 = getelementptr inbounds nuw %"class.cv::Size_", ptr %15, i32 0, i32 0
  %17 = load i32, ptr %16, align 4, !tbaa !97
  store i32 %17, ptr %10, align 4, !tbaa !7
  call void @llvm.lifetime.start.p0(i64 4, ptr %11) #18
  %18 = load ptr, ptr %7, align 8, !tbaa !95
  %19 = getelementptr inbounds nuw %"class.cv::Size_", ptr %18, i32 0, i32 1
  %20 = load i32, ptr %19, align 4, !tbaa !98
  store i32 %20, ptr %11, align 4, !tbaa !7
  %21 = load ptr, ptr %8, align 8, !tbaa !51
  %22 = load i64, ptr %9, align 8, !tbaa !12
  call void @_ZNSt6vectorIN2cv6Point_IfEESaIS2_EE6resizeEm(ptr noundef nonnull align 8 dereferenceable(24) %21, i64 noundef %22)
  call void @llvm.lifetime.start.p0(i64 8, ptr %12) #18
  store i64 0, ptr %12, align 8, !tbaa !12
  br label %23

23:                                               ; preds = %55, %4
  %24 = load i64, ptr %12, align 8, !tbaa !12
  %25 = load i64, ptr %9, align 8, !tbaa !12
  %26 = icmp ult i64 %24, %25
  br i1 %26, label %28, label %27

27:                                               ; preds = %23
  call void @llvm.lifetime.end.p0(i64 8, ptr %12) #18
  br label %58

28:                                               ; preds = %23
  %29 = load ptr, ptr %6, align 8, !tbaa !106
  %30 = load i64, ptr %12, align 8, !tbaa !12
  %31 = call noundef nonnull align 4 dereferenceable(28) ptr @_ZNKSt6vectorIN2cv8KeyPointESaIS1_EEixEm(ptr noundef nonnull align 8 dereferenceable(24) %29, i64 noundef %30) #18
  %32 = getelementptr inbounds nuw %"class.cv::KeyPoint", ptr %31, i32 0, i32 0
  %33 = getelementptr inbounds nuw %"class.cv::Point_", ptr %32, i32 0, i32 0
  %34 = load float, ptr %33, align 4, !tbaa !108
  %35 = load i32, ptr %10, align 4, !tbaa !7
  %36 = sitofp i32 %35 to float
  %37 = fdiv float %34, %36
  %38 = load ptr, ptr %8, align 8, !tbaa !51
  %39 = load i64, ptr %12, align 8, !tbaa !12
  %40 = call noundef nonnull align 4 dereferenceable(8) ptr @_ZNSt6vectorIN2cv6Point_IfEESaIS2_EEixEm(ptr noundef nonnull align 8 dereferenceable(24) %38, i64 noundef %39) #18
  %41 = getelementptr inbounds nuw %"class.cv::Point_", ptr %40, i32 0, i32 0
  store float %37, ptr %41, align 4, !tbaa !57
  %42 = load ptr, ptr %6, align 8, !tbaa !106
  %43 = load i64, ptr %12, align 8, !tbaa !12
  %44 = call noundef nonnull align 4 dereferenceable(28) ptr @_ZNKSt6vectorIN2cv8KeyPointESaIS1_EEixEm(ptr noundef nonnull align 8 dereferenceable(24) %42, i64 noundef %43) #18
  %45 = getelementptr inbounds nuw %"class.cv::KeyPoint", ptr %44, i32 0, i32 0
  %46 = getelementptr inbounds nuw %"class.cv::Point_", ptr %45, i32 0, i32 1
  %47 = load float, ptr %46, align 4, !tbaa !110
  %48 = load i32, ptr %11, align 4, !tbaa !7
  %49 = sitofp i32 %48 to float
  %50 = fdiv float %47, %49
  %51 = load ptr, ptr %8, align 8, !tbaa !51
  %52 = load i64, ptr %12, align 8, !tbaa !12
  %53 = call noundef nonnull align 4 dereferenceable(8) ptr @_ZNSt6vectorIN2cv6Point_IfEESaIS2_EEixEm(ptr noundef nonnull align 8 dereferenceable(24) %51, i64 noundef %52) #18
  %54 = getelementptr inbounds nuw %"class.cv::Point_", ptr %53, i32 0, i32 1
  store float %50, ptr %54, align 4, !tbaa !61
  br label %55

55:                                               ; preds = %28
  %56 = load i64, ptr %12, align 8, !tbaa !12
  %57 = add i64 %56, 1
  store i64 %57, ptr %12, align 8, !tbaa !12
  br label %23, !llvm.loop !111

58:                                               ; preds = %27
  call void @llvm.lifetime.end.p0(i64 4, ptr %11) #18
  call void @llvm.lifetime.end.p0(i64 4, ptr %10) #18
  call void @llvm.lifetime.end.p0(i64 8, ptr %9) #18
  ret void
}