; Function Attrs: mustprogress uwtable
define hidden void @_ZN2cv11xfeatures2d10GMSMatcher15normalizePointsERKSt6vectorINS_8KeyPointESaIS3_EERKNS_5Size_IiEERS2_INS_6Point_IfEESaISD_EE(ptr noundef nonnull readnone align 8 captures(none) dereferenceable(512) %0, ptr noundef nonnull readonly align 8 captures(none) dereferenceable(24) %1, ptr noundef nonnull readonly align 4 captures(none) dereferenceable(8) %2, ptr noundef nonnull align 8 dereferenceable(24) %3) local_unnamed_addr #4 align 2 {
  %5 = getelementptr inbounds nuw i8, ptr %1, i64 8
  %6 = load ptr, ptr %5, align 8, !tbaa !110
  %7 = load ptr, ptr %1, align 8, !tbaa !113
  %8 = ptrtoint ptr %6 to i64
  %9 = ptrtoint ptr %7 to i64
  %10 = sub i64 %8, %9
  %11 = sdiv exact i64 %10, 28
  %12 = load i32, ptr %2, align 4, !tbaa !91
  %13 = getelementptr inbounds nuw i8, ptr %2, i64 4
  %14 = load i32, ptr %13, align 4, !tbaa !114
  tail call void @_ZNSt6vectorIN2cv6Point_IfEESaIS2_EE6resizeEm(ptr noundef nonnull align 8 dereferenceable(24) %3, i64 noundef %11)
  %.not = icmp eq ptr %6, %7
  br i1 %.not, label %._crit_edge, label %.lr.ph

.lr.ph:                                           ; preds = %4
  %15 = load ptr, ptr %1, align 8, !tbaa !113
  %16 = sitofp i32 %12 to float
  %17 = load ptr, ptr %3, align 8, !tbaa !41
  %18 = sitofp i32 %14 to float
  %umax = tail call i64 @llvm.umax.i64(i64 %11, i64 1)
  br label %19

._crit_edge:                                      ; preds = %19, %4
  ret void

19:                                               ; preds = %.lr.ph, %19
  %.017 = phi i64 [ 0, %.lr.ph ], [ %28, %19 ]
  %20 = getelementptr inbounds nuw %"class.cv::KeyPoint", ptr %15, i64 %.017
  %21 = load float, ptr %20, align 4, !tbaa !115
  %22 = fdiv float %21, %16
  %23 = getelementptr inbounds nuw %"class.cv::Point_", ptr %17, i64 %.017
  store float %22, ptr %23, align 4, !tbaa !45
  %24 = getelementptr inbounds nuw i8, ptr %20, i64 4
  %25 = load float, ptr %24, align 4, !tbaa !117
  %26 = fdiv float %25, %18
  %27 = getelementptr inbounds nuw i8, ptr %23, i64 4
  store float %26, ptr %27, align 4, !tbaa !49
  %28 = add nuw i64 %.017, 1
  %exitcond.not = icmp eq i64 %28, %umax
  br i1 %exitcond.not, label %._crit_edge, label %19, !llvm.loop !118
}